; ModuleID = '40/718.c'
source_filename = "40/718.c"
target datalayout = "e-m:e-p270:32:32-p271:32:32-p272:64:64-i64:64-f80:128-n8:16:32:64-S128"
target triple = "x86_64-pc-linux-gnu"

@.str = private unnamed_addr constant [9 x i8] c"%f%f%f%f\00", align 1
@.str.1 = private unnamed_addr constant [4 x i8] c"%lf\00", align 1
@.str.2 = private unnamed_addr constant [14 x i8] c"Invalid input\00", align 1
@.str.3 = private unnamed_addr constant [6 x i8] c"%.4lf\00", align 1

; Function Attrs: noinline nounwind uwtable
define dso_local i32 @main() #0 {
  %1 = alloca i32, align 4
  %2 = alloca float, align 4
  %3 = alloca float, align 4
  %4 = alloca float, align 4
  %5 = alloca float, align 4
  %6 = alloca float, align 4
  %7 = alloca double, align 8
  %8 = alloca double, align 8
  %9 = alloca double, align 8
  store i32 0, i32* %1, align 4
  %10 = call i32 (i8*, ...) @__isoc99_scanf(i8* getelementptr inbounds ([9 x i8], [9 x i8]* @.str, i64 0, i64 0), float* %2, float* %3, float* %4, float* %5)
  %11 = call i32 (i8*, ...) @__isoc99_scanf(i8* getelementptr inbounds ([4 x i8], [4 x i8]* @.str.1, i64 0, i64 0), double* %9)
  %12 = load double, double* %9, align 8
  %13 = fmul double %12, 0x400921FB4D12D84A
  %14 = fdiv double %13, 3.600000e+02
  store double %14, double* %8, align 8
  %15 = load float, float* %2, align 4
  %16 = load float, float* %3, align 4
  %17 = fadd float %15, %16
  %18 = load float, float* %4, align 4
  %19 = fadd float %17, %18
  %20 = load float, float* %5, align 4
  %21 = fadd float %19, %20
  %22 = fpext float %21 to double
  %23 = fmul double 5.000000e-01, %22
  %24 = fptrunc double %23 to float
  store float %24, float* %6, align 4
  %25 = load float, float* %6, align 4
  %26 = load float, float* %2, align 4
  %27 = fsub float %25, %26
  %28 = load float, float* %6, align 4
  %29 = load float, float* %3, align 4
  %30 = fsub float %28, %29
  %31 = fmul float %27, %30
  %32 = load float, float* %6, align 4
  %33 = load float, float* %4, align 4
  %34 = fsub float %32, %33
  %35 = fmul float %31, %34
  %36 = load float, float* %6, align 4
  %37 = load float, float* %5, align 4
  %38 = fsub float %36, %37
  %39 = fmul float %35, %38
  %40 = fpext float %39 to double
  %41 = load float, float* %2, align 4
  %42 = load float, float* %3, align 4
  %43 = fmul float %41, %42
  %44 = load float, float* %4, align 4
  %45 = fmul float %43, %44
  %46 = load float, float* %5, align 4
  %47 = fmul float %45, %46
  %48 = fpext float %47 to double
  %49 = load double, double* %8, align 8
  %50 = call double @cos(double %49) #3
  %51 = fmul double %48, %50
  %52 = load double, double* %8, align 8
  %53 = call double @cos(double %52) #3
  %54 = fmul double %51, %53
  %55 = fsub double %40, %54
  %56 = fcmp olt double %55, 0.000000e+00
  br i1 %56, label %57, label %59

57:                                               ; preds = %0
  %58 = call i32 (i8*, ...) @printf(i8* getelementptr inbounds ([14 x i8], [14 x i8]* @.str.2, i64 0, i64 0))
  br label %94

59:                                               ; preds = %0
  %60 = load float, float* %6, align 4
  %61 = load float, float* %2, align 4
  %62 = fsub float %60, %61
  %63 = load float, float* %6, align 4
  %64 = load float, float* %3, align 4
  %65 = fsub float %63, %64
  %66 = fmul float %62, %65
  %67 = load float, float* %6, align 4
  %68 = load float, float* %4, align 4
  %69 = fsub float %67, %68
  %70 = fmul float %66, %69
  %71 = load float, float* %6, align 4
  %72 = load float, float* %5, align 4
  %73 = fsub float %71, %72
  %74 = fmul float %70, %73
  %75 = fpext float %74 to double
  %76 = load float, float* %2, align 4
  %77 = load float, float* %3, align 4
  %78 = fmul float %76, %77
  %79 = load float, float* %4, align 4
  %80 = fmul float %78, %79
  %81 = load float, float* %5, align 4
  %82 = fmul float %80, %81
  %83 = fpext float %82 to double
  %84 = load double, double* %8, align 8
  %85 = call double @cos(double %84) #3
  %86 = fmul double %83, %85
  %87 = load double, double* %8, align 8
  %88 = call double @cos(double %87) #3
  %89 = fmul double %86, %88
  %90 = fsub double %75, %89
  %91 = call double @sqrt(double %90) #3
  store double %91, double* %7, align 8
  %92 = load double, double* %7, align 8
  %93 = call i32 (i8*, ...) @printf(i8* getelementptr inbounds ([6 x i8], [6 x i8]* @.str.3, i64 0, i64 0), double %92)
  br label %94

94:                                               ; preds = %59, %57
  ret i32 0
}

declare dso_local i32 @__isoc99_scanf(i8*, ...) #1

; Function Attrs: nounwind
declare dso_local double @cos(double) #2

declare dso_local i32 @printf(i8*, ...) #1

; Function Attrs: nounwind
declare dso_local double @sqrt(double) #2


!llvm.module.flags = !{!0}
!llvm.ident = !{!1}

!0 = !{i32 1, !"wchar_size", i32 4}
!1 = !{!"clang version 10.0.0-4ubuntu1 "}
