; ModuleID = 'source-C-CXX/39/718.c'
source_filename = "source-C-CXX/39/718.c"
target datalayout = "e-m:e-p270:32:32-p271:32:32-p272:64:64-i64:64-f80:128-n8:16:32:64-S128"
target triple = "x86_64-pc-linux-gnu"

@.str = private unnamed_addr constant [9 x i8] c"%f%f%f%f\00", align 1
@.str.1 = private unnamed_addr constant [4 x i8] c"%lf\00", align 1
@.str.2 = private unnamed_addr constant [14 x i8] c"Invalid input\00", align 1
@.str.3 = private unnamed_addr constant [6 x i8] c"%.4lf\00", align 1

; Function Attrs: nofree nounwind sspstrong uwtable
define dso_local i32 @main() local_unnamed_addr #0 {
  %1 = alloca float, align 4
  %2 = alloca float, align 4
  %3 = alloca float, align 4
  %4 = alloca float, align 4
  %5 = alloca double, align 8
  %6 = bitcast float* %1 to i8*
  call void @llvm.lifetime.start.p0i8(i64 4, i8* nonnull %6) #4
  %7 = bitcast float* %2 to i8*
  call void @llvm.lifetime.start.p0i8(i64 4, i8* nonnull %7) #4
  %8 = bitcast float* %3 to i8*
  call void @llvm.lifetime.start.p0i8(i64 4, i8* nonnull %8) #4
  %9 = bitcast float* %4 to i8*
  call void @llvm.lifetime.start.p0i8(i64 4, i8* nonnull %9) #4
  %10 = bitcast double* %5 to i8*
  call void @llvm.lifetime.start.p0i8(i64 8, i8* nonnull %10) #4
  %11 = call i32 (i8*, ...) @__isoc99_scanf(i8* getelementptr inbounds ([9 x i8], [9 x i8]* @.str, i64 0, i64 0), float* nonnull %1, float* nonnull %2, float* nonnull %3, float* nonnull %4)
  %12 = call i32 (i8*, ...) @__isoc99_scanf(i8* getelementptr inbounds ([4 x i8], [4 x i8]* @.str.1, i64 0, i64 0), double* nonnull %5)
  %13 = load double, double* %5, align 8, !tbaa !5
  %14 = fmul double %13, 0x400921FB4D12D84A
  %15 = fdiv double %14, 3.600000e+02
  %16 = load float, float* %1, align 4, !tbaa !9
  %17 = load float, float* %2, align 4, !tbaa !9
  %18 = fadd float %16, %17
  %19 = load float, float* %3, align 4, !tbaa !9
  %20 = fadd float %18, %19
  %21 = load float, float* %4, align 4, !tbaa !9
  %22 = fadd float %20, %21
  %23 = fmul float %22, 5.000000e-01
  %24 = fsub float %23, %16
  %25 = fsub float %23, %17
  %26 = fmul float %24, %25
  %27 = fsub float %23, %19
  %28 = fmul float %27, %26
  %29 = fsub float %23, %21
  %30 = fmul float %29, %28
  %31 = fpext float %30 to double
  %32 = fmul float %16, %17
  %33 = fmul float %32, %19
  %34 = fmul float %33, %21
  %35 = fpext float %34 to double
  %36 = call double @cos(double %15) #4
  %37 = fmul double %36, %35
  %38 = call double @cos(double %15) #4
  %39 = fmul double %38, %37
  %40 = fsub double %31, %39
  %41 = fcmp olt double %40, 0.000000e+00
  br i1 %41, label %42, label %44

42:                                               ; preds = %0
  %43 = call i32 (i8*, ...) @printf(i8* nonnull dereferenceable(1) getelementptr inbounds ([14 x i8], [14 x i8]* @.str.2, i64 0, i64 0))
  br label %68

44:                                               ; preds = %0
  %45 = load float, float* %1, align 4, !tbaa !9
  %46 = fsub float %23, %45
  %47 = load float, float* %2, align 4, !tbaa !9
  %48 = fsub float %23, %47
  %49 = fmul float %46, %48
  %50 = load float, float* %3, align 4, !tbaa !9
  %51 = fsub float %23, %50
  %52 = fmul float %49, %51
  %53 = load float, float* %4, align 4, !tbaa !9
  %54 = fsub float %23, %53
  %55 = fmul float %52, %54
  %56 = fpext float %55 to double
  %57 = fmul float %45, %47
  %58 = fmul float %57, %50
  %59 = fmul float %58, %53
  %60 = fpext float %59 to double
  %61 = call double @cos(double %15) #4
  %62 = fmul double %61, %60
  %63 = call double @cos(double %15) #4
  %64 = fmul double %63, %62
  %65 = fsub double %56, %64
  %66 = call double @sqrt(double %65) #4
  %67 = call i32 (i8*, ...) @printf(i8* nonnull dereferenceable(1) getelementptr inbounds ([6 x i8], [6 x i8]* @.str.3, i64 0, i64 0), double %66)
  br label %68

68:                                               ; preds = %44, %42
  call void @llvm.lifetime.end.p0i8(i64 8, i8* nonnull %10) #4
  call void @llvm.lifetime.end.p0i8(i64 4, i8* nonnull %9) #4
  call void @llvm.lifetime.end.p0i8(i64 4, i8* nonnull %8) #4
  call void @llvm.lifetime.end.p0i8(i64 4, i8* nonnull %7) #4
  call void @llvm.lifetime.end.p0i8(i64 4, i8* nonnull %6) #4
  ret i32 0
}

; Function Attrs: argmemonly mustprogress nofree nosync nounwind willreturn
declare void @llvm.lifetime.start.p0i8(i64 immarg, i8* nocapture) #1

; Function Attrs: nofree nounwind
declare noundef i32 @__isoc99_scanf(i8* nocapture noundef readonly, ...) local_unnamed_addr #2

; Function Attrs: mustprogress nofree nounwind willreturn
declare double @cos(double) local_unnamed_addr #3

; Function Attrs: nofree nounwind
declare noundef i32 @printf(i8* nocapture noundef readonly, ...) local_unnamed_addr #2

; Function Attrs: mustprogress nofree nounwind willreturn
declare double @sqrt(double) local_unnamed_addr #3

; Function Attrs: argmemonly mustprogress nofree nosync nounwind willreturn
declare void @llvm.lifetime.end.p0i8(i64 immarg, i8* nocapture) #1


!llvm.module.flags = !{!0, !1, !2, !3}
!llvm.ident = !{!4}

!0 = !{i32 1, !"wchar_size", i32 4}
!1 = !{i32 7, !"PIC Level", i32 2}
!2 = !{i32 7, !"PIE Level", i32 2}
!3 = !{i32 7, !"uwtable", i32 1}
!4 = !{!"clang version 13.0.0"}
!5 = !{!6, !6, i64 0}
!6 = !{!"double", !7, i64 0}
!7 = !{!"omnipotent char", !8, i64 0}
!8 = !{!"Simple C/C++ TBAA"}
!9 = !{!10, !10, i64 0}
!10 = !{!"float", !7, i64 0}
